; Function Attrs: nounwind uwtable
define nonnull ptr @l_Lean_Linter_getLinterUnusedVariablesPatternVars___boxed(ptr noundef %0) local_unnamed_addr #1 {
  %2 = load ptr, ptr @l_Lean_Linter_linter_unusedVariables_patternVars, align 8, !tbaa !4
  %3 = getelementptr inbounds nuw i8, ptr %2, i64 8
  %4 = load ptr, ptr %3, align 8, !tbaa !4
  %5 = ptrtoint ptr %4 to i64
  %6 = and i64 %5, 1
  %.not.i3 = icmp eq i64 %6, 0
  br i1 %.not.i3, label %7, label %lean_inc.exit.i

7:                                                ; preds = %1
  %.val.i.i = load i32, ptr %4, align 4, !tbaa !8
  %8 = icmp sgt i32 %.val.i.i, 0
  br i1 %8, label %9, label %11, !prof !11

9:                                                ; preds = %7
  %10 = add nuw i32 %.val.i.i, 1
  store i32 %10, ptr %4, align 4, !tbaa !8
  br label %lean_inc.exit.i

11:                                               ; preds = %7
  %.not.i8.i = icmp eq i32 %.val.i.i, 0
  br i1 %.not.i8.i, label %lean_inc.exit.i, label %12

12:                                               ; preds = %11
  tail call void @lean_inc_ref_cold(ptr noundef nonnull %4) #7
  br label %lean_inc.exit.i

lean_inc.exit.i:                                  ; preds = %12, %11, %9, %1
  %13 = load ptr, ptr @l_Lean_Linter_getLinterUnusedVariables___closed__1, align 8, !tbaa !4
  %14 = tail call zeroext i8 @l_Lean_Linter_getLinterValue(ptr noundef %13, ptr noundef %0) #7
  %15 = tail call zeroext i8 @l_Lean_Linter_LinterOptions_get___at_Lean_Linter_getLinterAll___spec__1(ptr noundef %0, ptr noundef %4, i8 noundef zeroext %14) #7
  br i1 %.not.i3, label %16, label %l_Lean_Linter_getLinterUnusedVariablesPatternVars.exit

16:                                               ; preds = %lean_inc.exit.i
  %17 = load i32, ptr %4, align 4, !tbaa !8
  %18 = icmp sgt i32 %17, 1
  br i1 %18, label %19, label %21, !prof !11

19:                                               ; preds = %16
  %20 = add nsw i32 %17, -1
  store i32 %20, ptr %4, align 4, !tbaa !8
  br label %l_Lean_Linter_getLinterUnusedVariablesPatternVars.exit

21:                                               ; preds = %16
  %.not.i.i = icmp eq i32 %17, 0
  br i1 %.not.i.i, label %l_Lean_Linter_getLinterUnusedVariablesPatternVars.exit, label %22

22:                                               ; preds = %21
  tail call void @lean_dec_ref_cold(ptr noundef nonnull %4) #7
  br label %l_Lean_Linter_getLinterUnusedVariablesPatternVars.exit

l_Lean_Linter_getLinterUnusedVariablesPatternVars.exit: ; preds = %lean_inc.exit.i, %19, %21, %22
  %23 = ptrtoint ptr %0 to i64
  %24 = and i64 %23, 1
  %.not = icmp eq i64 %24, 0
  br i1 %.not, label %25, label %lean_dec.exit

25:                                               ; preds = %l_Lean_Linter_getLinterUnusedVariablesPatternVars.exit
  %26 = load i32, ptr %0, align 4, !tbaa !8
  %27 = icmp sgt i32 %26, 1
  br i1 %27, label %28, label %30, !prof !11

28:                                               ; preds = %25
  %29 = add nsw i32 %26, -1
  store i32 %29, ptr %0, align 4, !tbaa !8
  br label %lean_dec.exit

30:                                               ; preds = %25
  %.not.i = icmp eq i32 %26, 0
  br i1 %.not.i, label %lean_dec.exit, label %31

31:                                               ; preds = %30
  tail call void @lean_dec_ref_cold(ptr noundef nonnull %0) #7
  br label %lean_dec.exit

lean_dec.exit:                                    ; preds = %31, %30, %28, %l_Lean_Linter_getLinterUnusedVariablesPatternVars.exit
  %32 = zext i8 %15 to i64
  %33 = shl nuw nsw i64 %32, 1
  %34 = or disjoint i64 %33, 1
  %35 = inttoptr i64 %34 to ptr
  ret ptr %35
}